; Function Attrs: nounwind uwtable
define internal fastcc void @FreeUserData(ptr noundef captures(none) %0) unnamed_addr #0 {
  %2 = getelementptr inbounds nuw i8, ptr %0, i64 800
  %3 = getelementptr inbounds nuw i8, ptr %0, i64 1600
  br label %.preheader

.preheader:                                       ; preds = %1, %11
  %indvars.iv17 = phi i64 [ 0, %1 ], [ %indvars.iv.next18, %11 ]
  br label %4

4:                                                ; preds = %.preheader, %4
  %indvars.iv = phi i64 [ 0, %.preheader ], [ %indvars.iv.next, %4 ]
  %5 = getelementptr inbounds nuw [10 x [10 x ptr]], ptr %0, i64 0, i64 %indvars.iv17, i64 %indvars.iv
  %6 = load ptr, ptr %5, align 8, !tbaa !11
  tail call void @SUNDlsMat_destroyMat(ptr noundef %6) #9
  %7 = getelementptr inbounds nuw [10 x [10 x ptr]], ptr %2, i64 0, i64 %indvars.iv17, i64 %indvars.iv
  %8 = load ptr, ptr %7, align 8, !tbaa !11
  tail call void @SUNDlsMat_destroyMat(ptr noundef %8) #9
  %9 = getelementptr inbounds nuw [10 x [10 x ptr]], ptr %3, i64 0, i64 %indvars.iv17, i64 %indvars.iv
  %10 = load ptr, ptr %9, align 8, !tbaa !13
  tail call void @SUNDlsMat_destroyArray(ptr noundef %10) #9
  %indvars.iv.next = add nuw nsw i64 %indvars.iv, 1
  %exitcond.not = icmp eq i64 %indvars.iv.next, 10
  br i1 %exitcond.not, label %11, label %4

11:                                               ; preds = %4
  %indvars.iv.next18 = add nuw nsw i64 %indvars.iv17, 1
  %exitcond20.not = icmp eq i64 %indvars.iv.next18, 10
  br i1 %exitcond20.not, label %12, label %.preheader

12:                                               ; preds = %11
  tail call void @free(ptr noundef nonnull %0) #9
  ret void
}